target datalayout = "e-m:e-p270:32:32-p271:32:32-p272:64:64-i64:64-i128:128-f80:128-n8:16:32:64-S128"
target triple = "x86_64-pc-linux-gnu"

%struct.PJconsts = type { ptr, ptr, ptr, ptr, ptr, ptr, ptr, ptr, ptr, ptr, ptr, ptr, i32, ptr, ptr, ptr, ptr, ptr, ptr, ptr, ptr, double, double, double, double, double, double, double, double, double, double, double, double, double, double, double, double, double, double, double, double, double, double, i32, i32, i32, i32, i32, i32, i32, i32, i32, i32, i32, ptr, ptr, ptr, ptr, ptr, ptr, double, double, double, double, double, double, double, double, double, double, double, i32, [7 x double], i32, ptr, ptr, double, double, i32, [4 x i8], %"class.std::shared_ptr", i8, double, i8, %"class.std::__cxx11::basic_string", %"class.std::__cxx11::basic_string", %"class.std::__cxx11::basic_string", i8, %"class.std::vector", i32, %"class.std::vector.3", i32, i8, i8, i8, ptr }
%"class.std::shared_ptr" = type { %"class.std::__shared_ptr" }
%"class.std::__shared_ptr" = type { ptr, %"class.std::__shared_count" }
%"class.std::__shared_count" = type { ptr }
%"class.std::__cxx11::basic_string" = type { %"struct.std::__cxx11::basic_string<char>::_Alloc_hider", i64, %union.anon }
%"struct.std::__cxx11::basic_string<char>::_Alloc_hider" = type { ptr }
%union.anon = type { i64, [8 x i8] }
%"class.std::vector" = type { %"struct.std::_Vector_base" }
%"struct.std::_Vector_base" = type { %"struct.std::_Vector_base<osgeo::proj::operation::GridDescription, std::allocator<osgeo::proj::operation::GridDescription>>::_Vector_impl" }
%"struct.std::_Vector_base<osgeo::proj::operation::GridDescription, std::allocator<osgeo::proj::operation::GridDescription>>::_Vector_impl" = type { %"struct.std::_Vector_base<osgeo::proj::operation::GridDescription, std::allocator<osgeo::proj::operation::GridDescription>>::_Vector_impl_data" }
%"struct.std::_Vector_base<osgeo::proj::operation::GridDescription, std::allocator<osgeo::proj::operation::GridDescription>>::_Vector_impl_data" = type { ptr, ptr, ptr }
%"class.std::vector.3" = type { %"struct.std::_Vector_base.4" }
%"struct.std::_Vector_base.4" = type { %"struct.std::_Vector_base<PJCoordOperation, std::allocator<PJCoordOperation>>::_Vector_impl" }
%"struct.std::_Vector_base<PJCoordOperation, std::allocator<PJCoordOperation>>::_Vector_impl" = type { %"struct.std::_Vector_base<PJCoordOperation, std::allocator<PJCoordOperation>>::_Vector_impl_data" }
%"struct.std::_Vector_base<PJCoordOperation, std::allocator<PJCoordOperation>>::_Vector_impl_data" = type { ptr, ptr, ptr }
%"struct.(anonymous namespace)::pj_rouss_data" = type { double, double, double, double, double, double, double, double, double, double, double, double, double, double, double, double, double, double, double, double, double, double, double, double, double, double, double, double, double, double, double, double, double, double, ptr }
%struct.PJ_XY = type { double, double }
%struct.PJ_LP = type { double, double }

; Function Attrs: mustprogress uwtable
define internal { double, double } @_ZL15rouss_e_inverse5PJ_XYP8PJconsts(double %0, double %1, ptr noundef %2) #0 {
  %4 = alloca %struct.PJ_LP, align 8
  %5 = alloca %struct.PJ_XY, align 8
  %6 = alloca ptr, align 8
  %7 = alloca ptr, align 8
  %8 = alloca double, align 8
  %9 = alloca double, align 8
  %10 = alloca double, align 8
  %11 = alloca double, align 8
  %12 = alloca double, align 8
  %13 = alloca double, align 8
  %14 = getelementptr inbounds nuw { double, double }, ptr %5, i32 0, i32 0
  store double %0, ptr %14, align 8
  %15 = getelementptr inbounds nuw { double, double }, ptr %5, i32 0, i32 1
  store double %1, ptr %15, align 8
  store ptr %2, ptr %6, align 8, !tbaa !3
  call void @llvm.memset.p0.i64(ptr align 8 %4, i8 0, i64 16, i1 false)
  call void @llvm.lifetime.start.p0(i64 8, ptr %7) #7
  %16 = load ptr, ptr %6, align 8, !tbaa !3
  %17 = getelementptr inbounds nuw %struct.PJconsts, ptr %16, i32 0, i32 11
  %18 = load ptr, ptr %17, align 8, !tbaa !43
  store ptr %18, ptr %7, align 8, !tbaa !41
  call void @llvm.lifetime.start.p0(i64 8, ptr %8) #7
  call void @llvm.lifetime.start.p0(i64 8, ptr %9) #7
  call void @llvm.lifetime.start.p0(i64 8, ptr %10) #7
  %19 = getelementptr inbounds nuw %struct.PJ_XY, ptr %5, i32 0, i32 0
  %20 = load double, ptr %19, align 8, !tbaa !92
  %21 = load ptr, ptr %6, align 8, !tbaa !3
  %22 = getelementptr inbounds nuw %struct.PJconsts, ptr %21, i32 0, i32 66
  %23 = load double, ptr %22, align 8, !tbaa !91
  %24 = fdiv double %20, %23
  store double %24, ptr %10, align 8, !tbaa !49
  call void @llvm.lifetime.start.p0(i64 8, ptr %11) #7
  %25 = getelementptr inbounds nuw %struct.PJ_XY, ptr %5, i32 0, i32 1
  %26 = load double, ptr %25, align 8, !tbaa !94
  %27 = load ptr, ptr %6, align 8, !tbaa !3
  %28 = getelementptr inbounds nuw %struct.PJconsts, ptr %27, i32 0, i32 66
  %29 = load double, ptr %28, align 8, !tbaa !91
  %30 = fdiv double %26, %29
  store double %30, ptr %11, align 8, !tbaa !49
  call void @llvm.lifetime.start.p0(i64 8, ptr %12) #7
  call void @llvm.lifetime.start.p0(i64 8, ptr %13) #7
  %31 = load double, ptr %10, align 8, !tbaa !49
  %32 = load double, ptr %10, align 8, !tbaa !49
  %33 = fmul double %31, %32
  store double %33, ptr %12, align 8, !tbaa !49
  %34 = load double, ptr %11, align 8, !tbaa !49
  %35 = load double, ptr %11, align 8, !tbaa !49
  %36 = fmul double %34, %35
  store double %36, ptr %13, align 8, !tbaa !49
  %37 = load double, ptr %10, align 8, !tbaa !49
  %38 = load ptr, ptr %7, align 8, !tbaa !41
  %39 = getelementptr inbounds nuw %"struct.(anonymous namespace)::pj_rouss_data", ptr %38, i32 0, i32 15
  %40 = load double, ptr %39, align 8, !tbaa !53
  %41 = load double, ptr %13, align 8, !tbaa !49
  %42 = fneg double %40
  %43 = call double @llvm.fmuladd.f64(double %42, double %41, double 1.000000e+00)
  %44 = load double, ptr %12, align 8, !tbaa !49
  %45 = load ptr, ptr %7, align 8, !tbaa !41
  %46 = getelementptr inbounds nuw %"struct.(anonymous namespace)::pj_rouss_data", ptr %45, i32 0, i32 16
  %47 = load double, ptr %46, align 8, !tbaa !55
  %48 = load ptr, ptr %7, align 8, !tbaa !41
  %49 = getelementptr inbounds nuw %"struct.(anonymous namespace)::pj_rouss_data", ptr %48, i32 0, i32 17
  %50 = load double, ptr %49, align 8, !tbaa !68
  %51 = load double, ptr %11, align 8, !tbaa !49
  %52 = call double @llvm.fmuladd.f64(double %50, double %51, double %47)
  %53 = load ptr, ptr %7, align 8, !tbaa !41
  %54 = getelementptr inbounds nuw %"struct.(anonymous namespace)::pj_rouss_data", ptr %53, i32 0, i32 18
  %55 = load double, ptr %54, align 8, !tbaa !69
  %56 = load double, ptr %12, align 8, !tbaa !49
  %57 = fneg double %55
  %58 = call double @llvm.fmuladd.f64(double %57, double %56, double %52)
  %59 = load ptr, ptr %7, align 8, !tbaa !41
  %60 = getelementptr inbounds nuw %"struct.(anonymous namespace)::pj_rouss_data", ptr %59, i32 0, i32 19
  %61 = load double, ptr %60, align 8, !tbaa !70
  %62 = load double, ptr %13, align 8, !tbaa !49
  %63 = call double @llvm.fmuladd.f64(double %61, double %62, double %58)
  %64 = load ptr, ptr %7, align 8, !tbaa !41
  %65 = getelementptr inbounds nuw %"struct.(anonymous namespace)::pj_rouss_data", ptr %64, i32 0, i32 21
  %66 = load double, ptr %65, align 8, !tbaa !72
  %67 = load double, ptr %12, align 8, !tbaa !49
  %68 = fmul double %66, %67
  %69 = load double, ptr %11, align 8, !tbaa !49
  %70 = fneg double %68
  %71 = call double @llvm.fmuladd.f64(double %70, double %69, double %63)
  %72 = call double @llvm.fmuladd.f64(double %44, double %71, double %43)
  %73 = load double, ptr %13, align 8, !tbaa !49
  %74 = load ptr, ptr %7, align 8, !tbaa !41
  %75 = getelementptr inbounds nuw %"struct.(anonymous namespace)::pj_rouss_data", ptr %74, i32 0, i32 20
  %76 = load double, ptr %75, align 8, !tbaa !71
  %77 = load double, ptr %13, align 8, !tbaa !49
  %78 = load ptr, ptr %7, align 8, !tbaa !41
  %79 = getelementptr inbounds nuw %"struct.(anonymous namespace)::pj_rouss_data", ptr %78, i32 0, i32 22
  %80 = load double, ptr %79, align 8, !tbaa !73
  %81 = load double, ptr %12, align 8, !tbaa !49
  %82 = fmul double %80, %81
  %83 = load double, ptr %11, align 8, !tbaa !49
  %84 = fmul double %82, %83
  %85 = fneg double %84
  %86 = call double @llvm.fmuladd.f64(double %76, double %77, double %85)
  %87 = call double @llvm.fmuladd.f64(double %73, double %86, double %72)
  %88 = fmul double %37, %87
  store double %88, ptr %9, align 8, !tbaa !49
  %89 = load ptr, ptr %7, align 8, !tbaa !41
  %90 = getelementptr inbounds nuw %"struct.(anonymous namespace)::pj_rouss_data", ptr %89, i32 0, i32 0
  %91 = load double, ptr %90, align 8, !tbaa !50
  %92 = load double, ptr %11, align 8, !tbaa !49
  %93 = load double, ptr %13, align 8, !tbaa !49
  %94 = load ptr, ptr %7, align 8, !tbaa !41
  %95 = getelementptr inbounds nuw %"struct.(anonymous namespace)::pj_rouss_data", ptr %94, i32 0, i32 24
  %96 = load double, ptr %95, align 8, !tbaa !75
  %97 = fneg double %96
  %98 = load ptr, ptr %7, align 8, !tbaa !41
  %99 = getelementptr inbounds nuw %"struct.(anonymous namespace)::pj_rouss_data", ptr %98, i32 0, i32 30
  %100 = load double, ptr %99, align 8, !tbaa !81
  %101 = load double, ptr %13, align 8, !tbaa !49
  %102 = call double @llvm.fmuladd.f64(double %100, double %101, double %97)
  %103 = call double @llvm.fmuladd.f64(double %93, double %102, double 1.000000e+00)
  %104 = call double @llvm.fmuladd.f64(double %92, double %103, double %91)
  %105 = load double, ptr %12, align 8, !tbaa !49
  %106 = load ptr, ptr %7, align 8, !tbaa !41
  %107 = getelementptr inbounds nuw %"struct.(anonymous namespace)::pj_rouss_data", ptr %106, i32 0, i32 23
  %108 = load double, ptr %107, align 8, !tbaa !74
  %109 = fneg double %108
  %110 = load double, ptr %11, align 8, !tbaa !49
  %111 = load ptr, ptr %7, align 8, !tbaa !41
  %112 = getelementptr inbounds nuw %"struct.(anonymous namespace)::pj_rouss_data", ptr %111, i32 0, i32 25
  %113 = load double, ptr %112, align 8, !tbaa !76
  %114 = fneg double %113
  %115 = load double, ptr %11, align 8, !tbaa !49
  %116 = load ptr, ptr %7, align 8, !tbaa !41
  %117 = getelementptr inbounds nuw %"struct.(anonymous namespace)::pj_rouss_data", ptr %116, i32 0, i32 27
  %118 = load double, ptr %117, align 8, !tbaa !78
  %119 = fneg double %118
  %120 = load double, ptr %11, align 8, !tbaa !49
  %121 = load ptr, ptr %7, align 8, !tbaa !41
  %122 = getelementptr inbounds nuw %"struct.(anonymous namespace)::pj_rouss_data", ptr %121, i32 0, i32 29
  %123 = load double, ptr %122, align 8, !tbaa !80
  %124 = fneg double %123
  %125 = load double, ptr %11, align 8, !tbaa !49
  %126 = load ptr, ptr %7, align 8, !tbaa !41
  %127 = getelementptr inbounds nuw %"struct.(anonymous namespace)::pj_rouss_data", ptr %126, i32 0, i32 33
  %128 = load double, ptr %127, align 8, !tbaa !84
  %129 = call double @llvm.fmuladd.f64(double %125, double %128, double %124)
  %130 = call double @llvm.fmuladd.f64(double %120, double %129, double %119)
  %131 = call double @llvm.fmuladd.f64(double %115, double %130, double %114)
  %132 = call double @llvm.fmuladd.f64(double %110, double %131, double %109)
  %133 = load double, ptr %12, align 8, !tbaa !49
  %134 = load ptr, ptr %7, align 8, !tbaa !41
  %135 = getelementptr inbounds nuw %"struct.(anonymous namespace)::pj_rouss_data", ptr %134, i32 0, i32 26
  %136 = load double, ptr %135, align 8, !tbaa !77
  %137 = load double, ptr %11, align 8, !tbaa !49
  %138 = load ptr, ptr %7, align 8, !tbaa !41
  %139 = getelementptr inbounds nuw %"struct.(anonymous namespace)::pj_rouss_data", ptr %138, i32 0, i32 28
  %140 = load double, ptr %139, align 8, !tbaa !79
  %141 = load double, ptr %11, align 8, !tbaa !49
  %142 = load ptr, ptr %7, align 8, !tbaa !41
  %143 = getelementptr inbounds nuw %"struct.(anonymous namespace)::pj_rouss_data", ptr %142, i32 0, i32 32
  %144 = load double, ptr %143, align 8, !tbaa !83
  %145 = call double @llvm.fmuladd.f64(double %141, double %144, double %140)
  %146 = call double @llvm.fmuladd.f64(double %137, double %145, double %136)
  %147 = load double, ptr %12, align 8, !tbaa !49
  %148 = load ptr, ptr %7, align 8, !tbaa !41
  %149 = getelementptr inbounds nuw %"struct.(anonymous namespace)::pj_rouss_data", ptr %148, i32 0, i32 31
  %150 = load double, ptr %149, align 8, !tbaa !82
  %151 = fneg double %147
  %152 = call double @llvm.fmuladd.f64(double %151, double %150, double %146)
  %153 = call double @llvm.fmuladd.f64(double %133, double %152, double %132)
  %154 = call double @llvm.fmuladd.f64(double %105, double %153, double %104)
  store double %154, ptr %8, align 8, !tbaa !49
  %155 = load ptr, ptr %6, align 8, !tbaa !3
  %156 = getelementptr inbounds nuw %struct.PJconsts, ptr %155, i32 0, i32 0
  %157 = load ptr, ptr %156, align 8, !tbaa !95
  %158 = load double, ptr %8, align 8, !tbaa !49
  %159 = load ptr, ptr %7, align 8, !tbaa !41
  %160 = getelementptr inbounds nuw %"struct.(anonymous namespace)::pj_rouss_data", ptr %159, i32 0, i32 34
  %161 = load ptr, ptr %160, align 8, !tbaa !45
  %162 = call noundef double @_Z14proj_inv_mdistP6pj_ctxdPKv(ptr noundef %157, double noundef %158, ptr noundef %161)
  %163 = getelementptr inbounds nuw %struct.PJ_LP, ptr %4, i32 0, i32 1
  store double %162, ptr %163, align 8, !tbaa !88
  %164 = getelementptr inbounds nuw %struct.PJ_LP, ptr %4, i32 0, i32 1
  %165 = load double, ptr %164, align 8, !tbaa !88
  %166 = call double @sin(double noundef %165) #7, !tbaa !48
  store double %166, ptr %8, align 8, !tbaa !49
  %167 = load double, ptr %9, align 8, !tbaa !49
  %168 = load ptr, ptr %6, align 8, !tbaa !3
  %169 = getelementptr inbounds nuw %struct.PJconsts, ptr %168, i32 0, i32 27
  %170 = load double, ptr %169, align 8, !tbaa !44
  %171 = load double, ptr %8, align 8, !tbaa !49
  %172 = fmul double %170, %171
  %173 = load double, ptr %8, align 8, !tbaa !49
  %174 = fneg double %172
  %175 = call double @llvm.fmuladd.f64(double %174, double %173, double 1.000000e+00)
  %176 = call double @sqrt(double noundef %175) #7, !tbaa !48
  %177 = fmul double %167, %176
  %178 = getelementptr inbounds nuw %struct.PJ_LP, ptr %4, i32 0, i32 1
  %179 = load double, ptr %178, align 8, !tbaa !88
  %180 = call double @cos(double noundef %179) #7, !tbaa !48
  %181 = fdiv double %177, %180
  %182 = getelementptr inbounds nuw %struct.PJ_LP, ptr %4, i32 0, i32 0
  store double %181, ptr %182, align 8, !tbaa !90
  call void @llvm.lifetime.end.p0(i64 8, ptr %13) #7
  call void @llvm.lifetime.end.p0(i64 8, ptr %12) #7
  call void @llvm.lifetime.end.p0(i64 8, ptr %11) #7
  call void @llvm.lifetime.end.p0(i64 8, ptr %10) #7
  call void @llvm.lifetime.end.p0(i64 8, ptr %9) #7
  call void @llvm.lifetime.end.p0(i64 8, ptr %8) #7
  call void @llvm.lifetime.end.p0(i64 8, ptr %7) #7
  %183 = load { double, double }, ptr %4, align 8
  ret { double, double } %183
}