; Function Attrs: mustprogress uwtable
define internal { double, double } @_ZL15rouss_e_inverse5PJ_XYP8PJconsts(double %0, double %1, ptr noundef readonly captures(none) %2) #0 {
  %4 = getelementptr inbounds nuw i8, ptr %2, i64 88
  %5 = load ptr, ptr %4, align 8, !tbaa !40
  %6 = getelementptr inbounds nuw i8, ptr %2, i64 488
  %7 = load double, ptr %6, align 8, !tbaa !84
  %8 = fdiv double %0, %7
  %9 = fdiv double %1, %7
  %10 = fmul double %8, %8
  %11 = fmul double %9, %9
  %12 = getelementptr inbounds nuw i8, ptr %5, i64 120
  %13 = load double, ptr %12, align 8, !tbaa !49
  %14 = fneg double %13
  %15 = tail call double @llvm.fmuladd.f64(double %14, double %11, double 1.000000e+00)
  %16 = getelementptr inbounds nuw i8, ptr %5, i64 128
  %17 = load double, ptr %16, align 8, !tbaa !51
  %18 = getelementptr inbounds nuw i8, ptr %5, i64 136
  %19 = load double, ptr %18, align 8, !tbaa !64
  %20 = tail call double @llvm.fmuladd.f64(double %19, double %9, double %17)
  %21 = getelementptr inbounds nuw i8, ptr %5, i64 144
  %22 = load double, ptr %21, align 8, !tbaa !65
  %23 = fneg double %22
  %24 = tail call double @llvm.fmuladd.f64(double %23, double %10, double %20)
  %25 = getelementptr inbounds nuw i8, ptr %5, i64 152
  %26 = load double, ptr %25, align 8, !tbaa !66
  %27 = tail call double @llvm.fmuladd.f64(double %26, double %11, double %24)
  %28 = getelementptr inbounds nuw i8, ptr %5, i64 168
  %29 = load double, ptr %28, align 8, !tbaa !68
  %30 = fneg double %10
  %31 = fmul double %29, %30
  %32 = tail call double @llvm.fmuladd.f64(double %31, double %9, double %27)
  %33 = tail call double @llvm.fmuladd.f64(double %10, double %32, double %15)
  %34 = getelementptr inbounds nuw i8, ptr %5, i64 160
  %35 = load double, ptr %34, align 8, !tbaa !67
  %36 = getelementptr inbounds nuw i8, ptr %5, i64 176
  %37 = load double, ptr %36, align 8, !tbaa !69
  %38 = fmul double %10, %37
  %39 = fneg double %9
  %40 = fmul double %38, %39
  %41 = tail call double @llvm.fmuladd.f64(double %35, double %11, double %40)
  %42 = tail call double @llvm.fmuladd.f64(double %11, double %41, double %33)
  %43 = fmul double %8, %42
  %44 = load double, ptr %5, align 8, !tbaa !46
  %45 = getelementptr inbounds nuw i8, ptr %5, i64 192
  %46 = load double, ptr %45, align 8, !tbaa !71
  %47 = fneg double %46
  %48 = getelementptr inbounds nuw i8, ptr %5, i64 240
  %49 = load double, ptr %48, align 8, !tbaa !77
  %50 = tail call double @llvm.fmuladd.f64(double %49, double %11, double %47)
  %51 = tail call double @llvm.fmuladd.f64(double %11, double %50, double 1.000000e+00)
  %52 = tail call double @llvm.fmuladd.f64(double %9, double %51, double %44)
  %53 = getelementptr inbounds nuw i8, ptr %5, i64 184
  %54 = load double, ptr %53, align 8, !tbaa !70
  %55 = fneg double %54
  %56 = getelementptr inbounds nuw i8, ptr %5, i64 200
  %57 = load double, ptr %56, align 8, !tbaa !72
  %58 = fneg double %57
  %59 = getelementptr inbounds nuw i8, ptr %5, i64 216
  %60 = load double, ptr %59, align 8, !tbaa !74
  %61 = fneg double %60
  %62 = getelementptr inbounds nuw i8, ptr %5, i64 232
  %63 = load double, ptr %62, align 8, !tbaa !76
  %64 = fneg double %63
  %65 = getelementptr inbounds nuw i8, ptr %5, i64 264
  %66 = load double, ptr %65, align 8, !tbaa !80
  %67 = tail call double @llvm.fmuladd.f64(double %9, double %66, double %64)
  %68 = tail call double @llvm.fmuladd.f64(double %9, double %67, double %61)
  %69 = tail call double @llvm.fmuladd.f64(double %9, double %68, double %58)
  %70 = tail call double @llvm.fmuladd.f64(double %9, double %69, double %55)
  %71 = getelementptr inbounds nuw i8, ptr %5, i64 208
  %72 = load double, ptr %71, align 8, !tbaa !73
  %73 = getelementptr inbounds nuw i8, ptr %5, i64 224
  %74 = load double, ptr %73, align 8, !tbaa !75
  %75 = getelementptr inbounds nuw i8, ptr %5, i64 256
  %76 = load double, ptr %75, align 8, !tbaa !79
  %77 = tail call double @llvm.fmuladd.f64(double %9, double %76, double %74)
  %78 = tail call double @llvm.fmuladd.f64(double %9, double %77, double %72)
  %79 = getelementptr inbounds nuw i8, ptr %5, i64 248
  %80 = load double, ptr %79, align 8, !tbaa !78
  %81 = tail call double @llvm.fmuladd.f64(double %30, double %80, double %78)
  %82 = tail call double @llvm.fmuladd.f64(double %10, double %81, double %70)
  %83 = tail call double @llvm.fmuladd.f64(double %10, double %82, double %52)
  %84 = load ptr, ptr %2, align 8, !tbaa !85
  %85 = getelementptr inbounds nuw i8, ptr %5, i64 272
  %86 = load ptr, ptr %85, align 8, !tbaa !42
  %87 = tail call noundef double @_Z14proj_inv_mdistP6pj_ctxdPKv(ptr noundef %84, double noundef %83, ptr noundef %86)
  %88 = tail call double @sin(double noundef %87) #7, !tbaa !45
  %89 = getelementptr inbounds nuw i8, ptr %2, i64 216
  %90 = load double, ptr %89, align 8, !tbaa !41
  %91 = fneg double %88
  %92 = fmul double %90, %91
  %93 = tail call double @llvm.fmuladd.f64(double %92, double %88, double 1.000000e+00)
  %94 = tail call double @sqrt(double noundef %93) #7, !tbaa !45
  %95 = fmul double %43, %94
  %96 = tail call double @cos(double noundef %87) #7, !tbaa !45
  %97 = fdiv double %95, %96
  %.fca.0.insert = insertvalue { double, double } poison, double %97, 0
  %.fca.1.insert = insertvalue { double, double } %.fca.0.insert, double %87, 1
  ret { double, double } %.fca.1.insert
}